target datalayout = "e-m:e-p270:32:32-p271:32:32-p272:64:64-i64:64-i128:128-f80:128-n8:16:32:64-S128"
target triple = "x86_64-pc-linux-gnu"

%struct.AVCodecContext = type { ptr, i32, i32, ptr, i32, i32, ptr, ptr, ptr, i64, i32, i32, ptr, i32, %struct.AVRational, %struct.AVRational, %struct.AVRational, i32, i32, i32, i32, i32, %struct.AVRational, i32, i32, i32, i32, i32, i32, i32, i32, i32, i32, i32, ptr, ptr, i32, float, float, float, float, float, float, float, float, float, i32, i32, i32, i32, i32, i32, i32, i32, i32, i32, i32, i32, ptr, ptr, ptr, i32, i32, i32, i32, i32, i32, i32, i32, i32, i32, %struct.AVChannelLayout, i32, i32, i32, i32, i32, i32, i32, i32, ptr, i32, i32, i32, float, float, i32, i32, i32, i32, i32, ptr, i64, i64, float, float, i32, i32, ptr, ptr, i32, i32, i32, i32, i32, ptr, ptr, ptr, ptr, i32, i32, [8 x i64], i32, i32, i32, i32, i32, i32, i32, ptr, ptr, i32, i32, i32, i32, i32, i32, i32, i32, i32, i32, ptr, ptr, i32, i32, ptr, ptr, ptr, ptr, i32, i32, i64, i32, i32, i64, ptr, i64, ptr, i32, ptr, i32 }
%struct.AVRational = type { i32, i32 }
%struct.AVChannelLayout = type { i32, i32, %union.anon, ptr }
%union.anon = type { i64 }
%struct.AVCodecInternal = type { i32, i32, i32, ptr, ptr, ptr, ptr, ptr, ptr, ptr, i32, ptr, ptr, ptr, i32, i32, ptr, i32, ptr, ptr, i32, i32 }
%struct.VAAPIAV1DecContext = type { %struct.VAAPIDecodeContext, [8 x %struct.VAAPIAV1FrameRef], ptr, i32, ptr }
%struct.VAAPIDecodeContext = type { i32, i32, ptr, ptr, ptr, ptr, i32, i32, %struct._VASurfaceAttrib }
%struct._VASurfaceAttrib = type { i32, i32, %struct._VAGenericValue }
%struct._VAGenericValue = type { i32, %union.anon.17 }
%union.anon.17 = type { ptr }
%struct.VAAPIAV1FrameRef = type { ptr, i32 }

; Function Attrs: cold nounwind optsize uwtable
define internal i32 @vaapi_av1_decode_init(ptr noundef %0) #1 {
  %2 = alloca i32, align 4
  %3 = alloca ptr, align 8
  %4 = alloca ptr, align 8
  %5 = alloca i32, align 4
  %6 = alloca i32, align 4
  store ptr %0, ptr %3, align 8, !tbaa !4
  call void @llvm.lifetime.start.p0(i64 8, ptr %4) #8
  %7 = load ptr, ptr %3, align 8, !tbaa !4
  %8 = getelementptr inbounds nuw %struct.AVCodecContext, ptr %7, i32 0, i32 7
  %9 = load ptr, ptr %8, align 8, !tbaa !64
  %10 = getelementptr inbounds nuw %struct.AVCodecInternal, ptr %9, i32 0, i32 16
  %11 = load ptr, ptr %10, align 8, !tbaa !65
  store ptr %11, ptr %4, align 8, !tbaa !71
  %12 = call ptr @av_frame_alloc()
  %13 = load ptr, ptr %4, align 8, !tbaa !71
  %14 = getelementptr inbounds nuw %struct.VAAPIAV1DecContext, ptr %13, i32 0, i32 2
  store ptr %12, ptr %14, align 8, !tbaa !76
  %15 = load ptr, ptr %4, align 8, !tbaa !71
  %16 = getelementptr inbounds nuw %struct.VAAPIAV1DecContext, ptr %15, i32 0, i32 2
  %17 = load ptr, ptr %16, align 8, !tbaa !76
  %18 = icmp ne ptr %17, null
  br i1 %18, label %20, label %19

19:                                               ; preds = %1
  store i32 -12, ptr %2, align 4
  store i32 1, ptr %5, align 4
  br label %58

20:                                               ; preds = %1
  call void @llvm.lifetime.start.p0(i64 4, ptr %6) #8
  store i32 0, ptr %6, align 4, !tbaa !13
  br label %21

21:                                               ; preds = %50, %20
  %22 = load i32, ptr %6, align 4, !tbaa !13
  %23 = sext i32 %22 to i64
  %24 = icmp ult i64 %23, 8
  br i1 %24, label %26, label %25

25:                                               ; preds = %21
  store i32 2, ptr %5, align 4
  br label %53

26:                                               ; preds = %21
  %27 = call ptr @av_frame_alloc()
  %28 = load ptr, ptr %4, align 8, !tbaa !71
  %29 = getelementptr inbounds nuw %struct.VAAPIAV1DecContext, ptr %28, i32 0, i32 1
  %30 = load i32, ptr %6, align 4, !tbaa !13
  %31 = sext i32 %30 to i64
  %32 = getelementptr inbounds [8 x %struct.VAAPIAV1FrameRef], ptr %29, i64 0, i64 %31
  %33 = getelementptr inbounds nuw %struct.VAAPIAV1FrameRef, ptr %32, i32 0, i32 0
  store ptr %27, ptr %33, align 8, !tbaa !226
  %34 = load ptr, ptr %4, align 8, !tbaa !71
  %35 = getelementptr inbounds nuw %struct.VAAPIAV1DecContext, ptr %34, i32 0, i32 1
  %36 = load i32, ptr %6, align 4, !tbaa !13
  %37 = sext i32 %36 to i64
  %38 = getelementptr inbounds [8 x %struct.VAAPIAV1FrameRef], ptr %35, i64 0, i64 %37
  %39 = getelementptr inbounds nuw %struct.VAAPIAV1FrameRef, ptr %38, i32 0, i32 0
  %40 = load ptr, ptr %39, align 8, !tbaa !226
  %41 = icmp ne ptr %40, null
  br i1 %41, label %43, label %42

42:                                               ; preds = %26
  store i32 -12, ptr %2, align 4
  store i32 1, ptr %5, align 4
  br label %53

43:                                               ; preds = %26
  %44 = load ptr, ptr %4, align 8, !tbaa !71
  %45 = getelementptr inbounds nuw %struct.VAAPIAV1DecContext, ptr %44, i32 0, i32 1
  %46 = load i32, ptr %6, align 4, !tbaa !13
  %47 = sext i32 %46 to i64
  %48 = getelementptr inbounds [8 x %struct.VAAPIAV1FrameRef], ptr %45, i64 0, i64 %47
  %49 = getelementptr inbounds nuw %struct.VAAPIAV1FrameRef, ptr %48, i32 0, i32 1
  store i32 0, ptr %49, align 8, !tbaa !224
  br label %50

50:                                               ; preds = %43
  %51 = load i32, ptr %6, align 4, !tbaa !13
  %52 = add nsw i32 %51, 1
  store i32 %52, ptr %6, align 4, !tbaa !13
  br label %21, !llvm.loop !272

53:                                               ; preds = %42, %25
  call void @llvm.lifetime.end.p0(i64 4, ptr %6) #8
  %54 = load i32, ptr %5, align 4
  switch i32 %54, label %58 [
    i32 2, label %55
  ]

55:                                               ; preds = %53
  %56 = load ptr, ptr %3, align 8, !tbaa !4
  %57 = call i32 @ff_vaapi_decode_init(ptr noundef %56)
  store i32 %57, ptr %2, align 4
  store i32 1, ptr %5, align 4
  br label %58

58:                                               ; preds = %55, %53, %19
  call void @llvm.lifetime.end.p0(i64 8, ptr %4) #8
  %59 = load i32, ptr %2, align 4
  ret i32 %59
}