; Function Attrs: cold nounwind optsize uwtable
define internal i32 @vaapi_av1_decode_init(ptr noundef %0) #1 {
  %2 = getelementptr inbounds nuw i8, ptr %0, i64 40
  %3 = load ptr, ptr %2, align 8, !tbaa !52
  %4 = getelementptr inbounds nuw i8, ptr %3, i64 112
  %5 = load ptr, ptr %4, align 8, !tbaa !53
  %6 = tail call ptr @av_frame_alloc() #6
  %7 = getelementptr inbounds nuw i8, ptr %5, i64 200
  store ptr %6, ptr %7, align 8, !tbaa !68
  %.not = icmp eq ptr %6, null
  br i1 %.not, label %.loopexit, label %.preheader

.preheader:                                       ; preds = %1
  %8 = getelementptr inbounds nuw i8, ptr %5, i64 72
  br label %9

9:                                                ; preds = %.preheader, %12
  %indvars.iv = phi i64 [ 0, %.preheader ], [ %indvars.iv.next, %12 ]
  %10 = tail call ptr @av_frame_alloc() #6
  %11 = getelementptr inbounds nuw [8 x %struct.VAAPIAV1FrameRef], ptr %8, i64 0, i64 %indvars.iv
  store ptr %10, ptr %11, align 8, !tbaa !177
  %.not16 = icmp eq ptr %10, null
  br i1 %.not16, label %.loopexit, label %12

12:                                               ; preds = %9
  %13 = getelementptr inbounds nuw i8, ptr %11, i64 8
  store i32 0, ptr %13, align 8, !tbaa !175
  %indvars.iv.next = add nuw nsw i64 %indvars.iv, 1
  %exitcond = icmp eq i64 %indvars.iv.next, 8
  br i1 %exitcond, label %.critedge, label %9, !llvm.loop !210

.critedge:                                        ; preds = %12
  %14 = tail call i32 @ff_vaapi_decode_init(ptr noundef %0) #6
  br label %.loopexit

.loopexit:                                        ; preds = %9, %1, %.critedge
  %.014 = phi i32 [ %14, %.critedge ], [ -12, %1 ], [ -12, %9 ]
  ret i32 %.014
}